; Function Attrs: mustprogress nounwind uwtable
define void @_ZN3gmx20InMemoryDeserializerD2Ev(ptr nocapture noundef nonnull align 8 dereferenceable(16) %0) unnamed_addr #0 align 2 personality ptr @__gxx_personality_v0 {
  store ptr getelementptr inbounds inrange(-16, 160) ({ [22 x ptr] }, ptr @_ZTVN3gmx20InMemoryDeserializerE, i64 0, i32 0, i64 2), ptr %0, align 8
  %2 = getelementptr inbounds i8, ptr %0, i64 8
  %3 = load ptr, ptr %2, align 8
  %.not.i = icmp eq ptr %3, null
  br i1 %.not.i, label %_ZNSt10unique_ptrIN3gmx20InMemoryDeserializer4ImplESt14default_deleteIS2_EED2Ev.exit, label %_ZNKSt14default_deleteIN3gmx20InMemoryDeserializer4ImplEEclEPS2_.exit.i

_ZNKSt14default_deleteIN3gmx20InMemoryDeserializer4ImplEEclEPS2_.exit.i: ; preds = %1
  tail call void @_ZdlPv(ptr noundef nonnull %3) #15
  br label %_ZNSt10unique_ptrIN3gmx20InMemoryDeserializer4ImplESt14default_deleteIS2_EED2Ev.exit

_ZNSt10unique_ptrIN3gmx20InMemoryDeserializer4ImplESt14default_deleteIS2_EED2Ev.exit: ; preds = %1, %_ZNKSt14default_deleteIN3gmx20InMemoryDeserializer4ImplEEclEPS2_.exit.i
  store ptr null, ptr %2, align 8
  ret void
}